; Function Attrs: mustprogress nounwind uwtable
define void @_ZN2cv4gapi3wip3gst15GStreamerSource4Priv8descr_ofEv(ptr dead_on_unwind noalias writable writeonly sret(%"class.cv::util::variant.37") align 8 captures(none) %0, ptr noundef nonnull align 8 dereferenceable(304) %1) local_unnamed_addr #6 align 2 personality ptr @__gxx_personality_v0 {
  invoke void @_ZN2cv4gapi3wip3gst15GStreamerSource4Priv16prepareVideoMetaEv(ptr noundef nonnull align 8 dereferenceable(304) %1)
          to label %3 unwind label %32

3:                                                ; preds = %2
  %4 = getelementptr inbounds nuw i8, ptr %1, i64 216
  %5 = load i32, ptr %4, align 8, !tbaa !29
  switch i32 %5, label %30 [
    i32 0, label %6
    i32 1, label %9
  ]

6:                                                ; preds = %3
  %7 = getelementptr inbounds nuw i8, ptr %1, i64 272
  store i64 5, ptr %0, align 8, !tbaa !128
  %8 = getelementptr inbounds nuw i8, ptr %0, i64 8
  tail call void @llvm.memcpy.p0.p0.i64(ptr noundef nonnull align 8 dereferenceable(12) %8, ptr noundef nonnull align 8 dereferenceable(12) %7, i64 12, i1 false), !tbaa.struct !130
  br label %31

9:                                                ; preds = %3
  %10 = getelementptr inbounds nuw i8, ptr %1, i64 224
  store i64 1, ptr %0, align 8, !tbaa !128
  %11 = getelementptr inbounds nuw i8, ptr %0, i64 8
  tail call void @llvm.memcpy.p0.p0.i64(ptr noundef nonnull align 8 dereferenceable(48) %11, ptr noundef nonnull align 8 dereferenceable(48) %10, i64 17, i1 false)
  %12 = getelementptr inbounds nuw i8, ptr %0, i64 32
  %13 = getelementptr inbounds nuw i8, ptr %1, i64 248
  %14 = getelementptr inbounds nuw i8, ptr %1, i64 256
  %15 = load ptr, ptr %14, align 8, !tbaa !132
  %16 = load ptr, ptr %13, align 8, !tbaa !86
  %17 = ptrtoint ptr %15 to i64
  %18 = ptrtoint ptr %16 to i64
  %19 = sub i64 %17, %18
  tail call void @llvm.memset.p0.i64(ptr noundef nonnull align 8 dereferenceable(24) %12, i8 0, i64 24, i1 false)
  %.not.i.i.i.i.i.i.i = icmp eq ptr %15, %16
  br i1 %.not.i.i.i.i.i.i.i, label %.noexc1.thread, label %22

.noexc1.thread:                                   ; preds = %9
  %20 = getelementptr inbounds i8, ptr null, i64 %19
  %21 = getelementptr inbounds nuw i8, ptr %0, i64 48
  tail call void @llvm.memset.p0.i64(ptr noundef nonnull align 8 dereferenceable(16) %12, i8 0, i64 16, i1 false)
  store ptr %20, ptr %21, align 8, !tbaa !133
  br label %_ZN2cv4util7variantIJNS0_9monostateENS_8GMatDescENS_11GScalarDescENS_10GArrayDescENS_11GOpaqueDescENS_10GFrameDescEEEC2IRS3_vEEOT_.exit

22:                                               ; preds = %9
  %23 = icmp ugt i64 %19, 9223372036854775804
  br i1 %23, label %.noexc.i.i.i.i.i, label %_ZNSt16allocator_traitsISaIiEE8allocateERS0_m.exit.i.i.i.i.i.i.i, !prof !89

.noexc.i.i.i.i.i:                                 ; preds = %22
  invoke void @_ZSt28__throw_bad_array_new_lengthv() #27
          to label %.noexc unwind label %32

.noexc:                                           ; preds = %.noexc.i.i.i.i.i
  unreachable

_ZNSt16allocator_traitsISaIiEE8allocateERS0_m.exit.i.i.i.i.i.i.i: ; preds = %22
  %24 = invoke noalias noundef nonnull ptr @_Znwm(i64 noundef %19) #24
          to label %25 unwind label %32

25:                                               ; preds = %_ZNSt16allocator_traitsISaIiEE8allocateERS0_m.exit.i.i.i.i.i.i.i
  store ptr %24, ptr %12, align 8, !tbaa !86
  %26 = getelementptr inbounds nuw i8, ptr %24, i64 %19
  %27 = getelementptr inbounds nuw i8, ptr %0, i64 48
  store ptr %26, ptr %27, align 8, !tbaa !133
  tail call void @llvm.memmove.p0.p0.i64(ptr nonnull align 4 %24, ptr align 4 %16, i64 %19, i1 false)
  br label %_ZN2cv4util7variantIJNS0_9monostateENS_8GMatDescENS_11GScalarDescENS_10GArrayDescENS_11GOpaqueDescENS_10GFrameDescEEEC2IRS3_vEEOT_.exit

_ZN2cv4util7variantIJNS0_9monostateENS_8GMatDescENS_11GScalarDescENS_10GArrayDescENS_11GOpaqueDescENS_10GFrameDescEEEC2IRS3_vEEOT_.exit: ; preds = %.noexc1.thread, %25
  %28 = phi ptr [ %20, %.noexc1.thread ], [ %26, %25 ]
  %29 = getelementptr inbounds nuw i8, ptr %0, i64 40
  store ptr %28, ptr %29, align 8, !tbaa !132
  br label %31

30:                                               ; preds = %3
  store i64 0, ptr %0, align 8, !tbaa !128
  br label %31

31:                                               ; preds = %_ZN2cv4util7variantIJNS0_9monostateENS_8GMatDescENS_11GScalarDescENS_10GArrayDescENS_11GOpaqueDescENS_10GFrameDescEEEC2IRS3_vEEOT_.exit, %6, %30
  ret void

32:                                               ; preds = %_ZNSt16allocator_traitsISaIiEE8allocateERS0_m.exit.i.i.i.i.i.i.i, %.noexc.i.i.i.i.i, %2
  %33 = landingpad { ptr, i32 }
          catch ptr null
  %34 = extractvalue { ptr, i32 } %33, 0
  tail call void @__clang_call_terminate(ptr %34) #28
  unreachable
}